; ModuleID = '51/247.c'
source_filename = "51/247.c"
target datalayout = "e-m:e-p270:32:32-p271:32:32-p272:64:64-i64:64-f80:128-n8:16:32:64-S128"
target triple = "x86_64-pc-linux-gnu"

@.str = private unnamed_addr constant [3 x i8] c"%d\00", align 1
@.str.1 = private unnamed_addr constant [3 x i8] c"%s\00", align 1
@.str.2 = private unnamed_addr constant [3 x i8] c"NO\00", align 1
@.str.3 = private unnamed_addr constant [4 x i8] c"%d\0A\00", align 1
@.str.4 = private unnamed_addr constant [4 x i8] c"%s\0A\00", align 1

; Function Attrs: noinline nounwind uwtable
define dso_local i32 @main() #0 {
  %1 = alloca i32, align 4
  %2 = alloca i32, align 4
  %3 = alloca i32, align 4
  %4 = alloca i32, align 4
  %5 = alloca [550 x i32], align 16
  %6 = alloca i32, align 4
  %7 = alloca i32, align 4
  %8 = alloca i32, align 4
  %9 = alloca i32, align 4
  %10 = alloca [550 x i8], align 16
  %11 = alloca [550 x [6 x i8]], align 16
  store i32 0, i32* %1, align 4
  store i32 0, i32* %4, align 4
  %12 = bitcast [550 x i32]* %5 to i8*
  call void @llvm.memset.p0i8.i64(i8* align 16 %12, i8 0, i64 2200, i1 false)
  store i32 1, i32* %7, align 4
  store i32 0, i32* %8, align 4
  %13 = bitcast [550 x [6 x i8]]* %11 to i8*
  call void @llvm.memset.p0i8.i64(i8* align 16 %13, i8 0, i64 3300, i1 false)
  %14 = call i32 (i8*, ...) @__isoc99_scanf(i8* getelementptr inbounds ([3 x i8], [3 x i8]* @.str, i64 0, i64 0), i32* %2)
  %15 = getelementptr inbounds [550 x i8], [550 x i8]* %10, i64 0, i64 0
  %16 = call i32 (i8*, ...) @__isoc99_scanf(i8* getelementptr inbounds ([3 x i8], [3 x i8]* @.str.1, i64 0, i64 0), i8* %15)
  %17 = getelementptr inbounds [550 x i8], [550 x i8]* %10, i64 0, i64 0
  %18 = call i64 @strlen(i8* %17) #4
  %19 = trunc i64 %18 to i32
  store i32 %19, i32* %6, align 4
  %20 = load i32, i32* %6, align 4
  %21 = load i32, i32* %2, align 4
  %22 = sub nsw i32 %20, %21
  %23 = add nsw i32 %22, 1
  store i32 %23, i32* %3, align 4
  br label %24

24:                                               ; preds = %50, %0
  %25 = getelementptr inbounds [550 x i8], [550 x i8]* %10, i64 0, i64 0
  %26 = load i32, i32* %8, align 4
  %27 = sext i32 %26 to i64
  %28 = getelementptr inbounds i8, i8* %25, i64 %27
  %29 = load i8, i8* %28, align 1
  %30 = getelementptr inbounds [550 x [6 x i8]], [550 x [6 x i8]]* %11, i64 0, i64 0
  %31 = load i32, i32* %7, align 4
  %32 = sext i32 %31 to i64
  %33 = getelementptr inbounds [6 x i8], [6 x i8]* %30, i64 %32
  %34 = getelementptr inbounds [6 x i8], [6 x i8]* %33, i64 0, i64 0
  %35 = load i32, i32* %4, align 4
  %36 = sext i32 %35 to i64
  %37 = getelementptr inbounds i8, i8* %34, i64 %36
  store i8 %29, i8* %37, align 1
  %38 = load i32, i32* %8, align 4
  %39 = add nsw i32 %38, 1
  store i32 %39, i32* %8, align 4
  %40 = load i32, i32* %4, align 4
  %41 = add nsw i32 %40, 1
  store i32 %41, i32* %4, align 4
  %42 = load i32, i32* %4, align 4
  %43 = load i32, i32* %2, align 4
  %44 = icmp eq i32 %42, %43
  br i1 %44, label %45, label %49

45:                                               ; preds = %24
  %46 = load i32, i32* %7, align 4
  store i32 %46, i32* %8, align 4
  %47 = load i32, i32* %7, align 4
  %48 = add nsw i32 %47, 1
  store i32 %48, i32* %7, align 4
  store i32 0, i32* %4, align 4
  br label %49

49:                                               ; preds = %45, %24
  br label %50

50:                                               ; preds = %49
  %51 = load i32, i32* %7, align 4
  %52 = load i32, i32* %3, align 4
  %53 = icmp sle i32 %51, %52
  br i1 %53, label %24, label %54

54:                                               ; preds = %50
  store i32 1, i32* %8, align 4
  br label %55

55:                                               ; preds = %91, %54
  %56 = load i32, i32* %8, align 4
  %57 = load i32, i32* %3, align 4
  %58 = sub nsw i32 %57, 1
  %59 = icmp sle i32 %56, %58
  br i1 %59, label %60, label %94

60:                                               ; preds = %55
  %61 = load i32, i32* %8, align 4
  %62 = add nsw i32 %61, 1
  store i32 %62, i32* %7, align 4
  br label %63

63:                                               ; preds = %87, %60
  %64 = load i32, i32* %7, align 4
  %65 = load i32, i32* %3, align 4
  %66 = icmp sle i32 %64, %65
  br i1 %66, label %67, label %90

67:                                               ; preds = %63
  %68 = getelementptr inbounds [550 x [6 x i8]], [550 x [6 x i8]]* %11, i64 0, i64 0
  %69 = load i32, i32* %8, align 4
  %70 = sext i32 %69 to i64
  %71 = getelementptr inbounds [6 x i8], [6 x i8]* %68, i64 %70
  %72 = getelementptr inbounds [6 x i8], [6 x i8]* %71, i64 0, i64 0
  %73 = getelementptr inbounds [550 x [6 x i8]], [550 x [6 x i8]]* %11, i64 0, i64 0
  %74 = load i32, i32* %7, align 4
  %75 = sext i32 %74 to i64
  %76 = getelementptr inbounds [6 x i8], [6 x i8]* %73, i64 %75
  %77 = getelementptr inbounds [6 x i8], [6 x i8]* %76, i64 0, i64 0
  %78 = call i32 @strcmp(i8* %72, i8* %77) #4
  %79 = icmp eq i32 %78, 0
  br i1 %79, label %80, label %86

80:                                               ; preds = %67
  %81 = load i32, i32* %8, align 4
  %82 = sext i32 %81 to i64
  %83 = getelementptr inbounds [550 x i32], [550 x i32]* %5, i64 0, i64 %82
  %84 = load i32, i32* %83, align 4
  %85 = add nsw i32 %84, 1
  store i32 %85, i32* %83, align 4
  br label %86

86:                                               ; preds = %80, %67
  br label %87

87:                                               ; preds = %86
  %88 = load i32, i32* %7, align 4
  %89 = add nsw i32 %88, 1
  store i32 %89, i32* %7, align 4
  br label %63

90:                                               ; preds = %63
  br label %91

91:                                               ; preds = %90
  %92 = load i32, i32* %8, align 4
  %93 = add nsw i32 %92, 1
  store i32 %93, i32* %8, align 4
  br label %55

94:                                               ; preds = %55
  %95 = getelementptr inbounds [550 x i32], [550 x i32]* %5, i64 0, i64 0
  %96 = getelementptr inbounds i32, i32* %95, i64 1
  %97 = load i32, i32* %96, align 4
  store i32 %97, i32* %9, align 4
  store i32 2, i32* %8, align 4
  br label %98

98:                                               ; preds = %117, %94
  %99 = load i32, i32* %8, align 4
  %100 = load i32, i32* %3, align 4
  %101 = icmp sle i32 %99, %100
  br i1 %101, label %102, label %120

102:                                              ; preds = %98
  %103 = getelementptr inbounds [550 x i32], [550 x i32]* %5, i64 0, i64 0
  %104 = load i32, i32* %8, align 4
  %105 = sext i32 %104 to i64
  %106 = getelementptr inbounds i32, i32* %103, i64 %105
  %107 = load i32, i32* %106, align 4
  %108 = load i32, i32* %9, align 4
  %109 = icmp sgt i32 %107, %108
  br i1 %109, label %110, label %116

110:                                              ; preds = %102
  %111 = getelementptr inbounds [550 x i32], [550 x i32]* %5, i64 0, i64 0
  %112 = load i32, i32* %8, align 4
  %113 = sext i32 %112 to i64
  %114 = getelementptr inbounds i32, i32* %111, i64 %113
  %115 = load i32, i32* %114, align 4
  store i32 %115, i32* %9, align 4
  br label %116

116:                                              ; preds = %110, %102
  br label %117

117:                                              ; preds = %116
  %118 = load i32, i32* %8, align 4
  %119 = add nsw i32 %118, 1
  store i32 %119, i32* %8, align 4
  br label %98

120:                                              ; preds = %98
  %121 = load i32, i32* %9, align 4
  %122 = icmp eq i32 %121, 0
  br i1 %122, label %123, label %125

123:                                              ; preds = %120
  %124 = call i32 (i8*, ...) @printf(i8* getelementptr inbounds ([3 x i8], [3 x i8]* @.str.2, i64 0, i64 0))
  br label %152

125:                                              ; preds = %120
  %126 = load i32, i32* %9, align 4
  %127 = add nsw i32 %126, 1
  %128 = call i32 (i8*, ...) @printf(i8* getelementptr inbounds ([4 x i8], [4 x i8]* @.str.3, i64 0, i64 0), i32 %127)
  store i32 1, i32* %8, align 4
  br label %129

129:                                              ; preds = %148, %125
  %130 = load i32, i32* %8, align 4
  %131 = load i32, i32* %3, align 4
  %132 = icmp sle i32 %130, %131
  br i1 %132, label %133, label %151

133:                                              ; preds = %129
  %134 = load i32, i32* %8, align 4
  %135 = sext i32 %134 to i64
  %136 = getelementptr inbounds [550 x i32], [550 x i32]* %5, i64 0, i64 %135
  %137 = load i32, i32* %136, align 4
  %138 = load i32, i32* %9, align 4
  %139 = icmp eq i32 %137, %138
  br i1 %139, label %140, label %147

140:                                              ; preds = %133
  %141 = getelementptr inbounds [550 x [6 x i8]], [550 x [6 x i8]]* %11, i64 0, i64 0
  %142 = load i32, i32* %8, align 4
  %143 = sext i32 %142 to i64
  %144 = getelementptr inbounds [6 x i8], [6 x i8]* %141, i64 %143
  %145 = getelementptr inbounds [6 x i8], [6 x i8]* %144, i64 0, i64 0
  %146 = call i32 (i8*, ...) @printf(i8* getelementptr inbounds ([4 x i8], [4 x i8]* @.str.4, i64 0, i64 0), i8* %145)
  br label %147

147:                                              ; preds = %140, %133
  br label %148

148:                                              ; preds = %147
  %149 = load i32, i32* %8, align 4
  %150 = add nsw i32 %149, 1
  store i32 %150, i32* %8, align 4
  br label %129

151:                                              ; preds = %129
  br label %152

152:                                              ; preds = %151, %123
  ret i32 0
}

; Function Attrs: argmemonly nounwind willreturn
declare void @llvm.memset.p0i8.i64(i8* nocapture writeonly, i8, i64, i1 immarg) #1

declare dso_local i32 @__isoc99_scanf(i8*, ...) #2

; Function Attrs: nounwind readonly
declare dso_local i64 @strlen(i8*) #3

; Function Attrs: nounwind readonly
declare dso_local i32 @strcmp(i8*, i8*) #3

declare dso_local i32 @printf(i8*, ...) #2


!llvm.module.flags = !{!0}
!llvm.ident = !{!1}

!0 = !{i32 1, !"wchar_size", i32 4}
!1 = !{!"clang version 10.0.0-4ubuntu1 "}
